; Function Attrs: mustprogress nofree norecurse nosync nounwind willreturn memory(none) uwtable
define i64 @_ZNK3spv10spirvbin_t12literalRangeENS_2OpE(ptr nocapture noundef nonnull readnone align 8 dereferenceable(473) %0, i32 noundef %1) local_unnamed_addr #4 align 2 {
  switch i32 %1, label %7 [
    i32 22, label %8
    i32 32, label %8
    i32 21, label %3
    i32 26, label %4
    i32 23, label %5
    i32 24, label %5
    i32 38, label %5
    i32 43, label %6
  ]

3:                                                ; preds = %2
  br label %8

4:                                                ; preds = %2
  br label %8

5:                                                ; preds = %2, %2, %2
  br label %8

6:                                                ; preds = %2
  br label %8

7:                                                ; preds = %2
  br label %8

8:                                                ; preds = %2, %2, %7, %6, %5, %4, %3
  %.sroa.0.0 = phi i64 [ 0, %7 ], [ 3, %6 ], [ 3, %5 ], [ 3, %4 ], [ 2, %3 ], [ 2, %2 ], [ 2, %2 ]
  %.sroa.7.0 = phi i64 [ 0, %7 ], [ 4611686018427387904, %6 ], [ 17179869184, %5 ], [ 34359738368, %4 ], [ 17179869184, %3 ], [ 12884901888, %2 ], [ 12884901888, %2 ]
  %.sroa.0.0.insert.insert = or disjoint i64 %.sroa.7.0, %.sroa.0.0
  ret i64 %.sroa.0.0.insert.insert
}